; Function Attrs: nounwind uwtable
define ptr @l___private_Lean_Meta_LazyDiscrTree_0__Lean_Meta_LazyDiscrTree_MatchResult_push_loop___rarg(ptr noundef %0, ptr noundef %1, ptr noundef %2) local_unnamed_addr #1 {
  %4 = ptrtoint ptr %0 to i64
  %5 = and i64 %4, 1
  %.not = icmp eq i64 %5, 0
  %6 = getelementptr i8, ptr %2, i64 8
  %.017.val.us30 = load i64, ptr %6, align 8, !tbaa !14
  %7 = shl i64 %.017.val.us30, 1
  %8 = or disjoint i64 %7, 1
  %9 = inttoptr i64 %8 to ptr
  br i1 %.not, label %.split.us, label %.split, !prof !13

.split.us:                                        ; preds = %3
  %10 = tail call zeroext i1 @lean_nat_big_lt(ptr noundef nonnull %9, ptr noundef %0) #6
  br i1 %10, label %.critedge.i.us, label %.split27.us

.critedge.i.us:                                   ; preds = %.split.us, %.critedge.i.us
  %.017.us31 = phi ptr [ %12, %.critedge.i.us ], [ %2, %.split.us ]
  %11 = load ptr, ptr @l___private_Lean_Meta_LazyDiscrTree_0__Lean_Meta_LazyDiscrTree_MatchClone_getKeyArgs___lambda__2___closed__1, align 8, !tbaa !4
  %12 = tail call ptr @lean_array_push(ptr noundef nonnull %.017.us31, ptr noundef %11) #6
  %13 = getelementptr i8, ptr %12, i64 8
  %.017.val.us = load i64, ptr %13, align 8, !tbaa !14
  %14 = shl i64 %.017.val.us, 1
  %15 = or disjoint i64 %14, 1
  %16 = inttoptr i64 %15 to ptr
  %17 = tail call zeroext i1 @lean_nat_big_lt(ptr noundef nonnull %16, ptr noundef %0) #6
  br i1 %17, label %.critedge.i.us, label %.split27.us

.split:                                           ; preds = %3
  %18 = icmp ugt ptr %0, %9
  br i1 %18, label %lean_dec.exit, label %.split27.us

.split27.us:                                      ; preds = %lean_dec.exit, %.critedge.i.us, %.split, %.split.us
  %.us-phi = phi ptr [ %2, %.split.us ], [ %2, %.split ], [ %12, %.critedge.i.us ], [ %23, %lean_dec.exit ]
  tail call void @lean_inc_heartbeat() #6
  %19 = tail call noalias ptr @mi_malloc_small(i64 noundef 24) #6
  %20 = icmp eq ptr %19, null
  br i1 %20, label %21, label %29

21:                                               ; preds = %.split27.us
  tail call void @lean_internal_panic_out_of_memory() #7
  unreachable

lean_dec.exit:                                    ; preds = %.split, %lean_dec.exit
  %.01729 = phi ptr [ %23, %lean_dec.exit ], [ %2, %.split ]
  %22 = load ptr, ptr @l___private_Lean_Meta_LazyDiscrTree_0__Lean_Meta_LazyDiscrTree_MatchClone_getKeyArgs___lambda__2___closed__1, align 8, !tbaa !4
  %23 = tail call ptr @lean_array_push(ptr noundef nonnull %.01729, ptr noundef %22) #6
  %24 = getelementptr i8, ptr %23, i64 8
  %.017.val = load i64, ptr %24, align 8, !tbaa !14
  %25 = shl i64 %.017.val, 1
  %26 = or disjoint i64 %25, 1
  %27 = inttoptr i64 %26 to ptr
  %28 = icmp ugt ptr %0, %27
  br i1 %28, label %lean_dec.exit, label %.split27.us

29:                                               ; preds = %.split27.us
  %30 = getelementptr inbounds nuw i8, ptr %19, i64 4
  store i32 1, ptr %19, align 4, !tbaa !8
  store i32 16908312, ptr %30, align 4
  %31 = getelementptr inbounds nuw i8, ptr %19, i64 8
  store ptr %1, ptr %31, align 8, !tbaa !4
  %32 = getelementptr inbounds nuw i8, ptr %19, i64 16
  store ptr inttoptr (i64 1 to ptr), ptr %32, align 8, !tbaa !4
  %33 = tail call ptr @lean_array_mk(ptr noundef nonnull %19) #6
  %34 = tail call ptr @lean_array_push(ptr noundef nonnull %.us-phi, ptr noundef %33) #6
  ret ptr %34
}